; Function Attrs: mustprogress nounwind uwtable
define hidden noundef ptr @_ZN11SignumFNode4makeER8PhaseGVNP4Node(ptr noundef nonnull align 8 dereferenceable(2400) %0, ptr noundef %1) local_unnamed_addr #1 align 2 {
  %3 = tail call align 8 ptr @llvm.threadlocal.address.p0(ptr align 8 @_ZN6Thread12_thr_currentE)
  %4 = load ptr, ptr %3, align 8
  %5 = getelementptr inbounds i8, ptr %4, i64 1808
  %6 = load ptr, ptr %5, align 8
  %7 = getelementptr inbounds i8, ptr %6, i64 128
  %8 = load ptr, ptr %7, align 8
  %9 = getelementptr inbounds i8, ptr %8, i64 728
  %10 = load ptr, ptr %9, align 8
  %11 = getelementptr inbounds i8, ptr %10, i64 40
  %12 = load ptr, ptr %11, align 8
  %13 = getelementptr inbounds i8, ptr %10, i64 32
  %14 = load ptr, ptr %13, align 8
  %15 = ptrtoint ptr %12 to i64
  %16 = ptrtoint ptr %14 to i64
  %17 = sub i64 %15, %16
  %.not.i.i.i = icmp ult i64 %17, 56
  br i1 %.not.i.i.i, label %20, label %18

18:                                               ; preds = %2
  %19 = getelementptr inbounds i8, ptr %14, i64 56
  store ptr %19, ptr %13, align 8
  br label %_ZN4NodenwEm.exit

20:                                               ; preds = %2
  %21 = tail call noundef ptr @_ZN5Arena4growEmN17AllocFailStrategy13AllocFailEnumE(ptr noundef nonnull align 8 dereferenceable(48) %10, i64 noundef 56, i32 noundef 0) #5
  br label %_ZN4NodenwEm.exit

_ZN4NodenwEm.exit:                                ; preds = %18, %20
  %.0.i.i.i = phi ptr [ %14, %18 ], [ %21, %20 ]
  %22 = icmp eq ptr %.0.i.i.i, null
  br i1 %22, label %28, label %23

23:                                               ; preds = %_ZN4NodenwEm.exit
  %24 = load ptr, ptr @_ZN5TypeF4ZEROE, align 8
  %25 = tail call noundef ptr @_ZN11PhaseValues7makeconEPK4Type(ptr noundef nonnull align 8 dereferenceable(2400) %0, ptr noundef %24) #5
  %26 = load ptr, ptr @_ZN5TypeF3ONEE, align 8
  %27 = tail call noundef ptr @_ZN11PhaseValues7makeconEPK4Type(ptr noundef nonnull align 8 dereferenceable(2400) %0, ptr noundef %26) #5
  tail call void @_ZN4NodeC2EPS_S0_S0_S0_(ptr noundef nonnull align 8 dereferenceable(52) %.0.i.i.i, ptr noundef null, ptr noundef %1, ptr noundef %25, ptr noundef %27) #5
  store ptr getelementptr inbounds inrange(-16, 192) (i8, ptr @_ZTV11SignumFNode, i64 16), ptr %.0.i.i.i, align 8
  br label %28

28:                                               ; preds = %23, %_ZN4NodenwEm.exit
  ret ptr %.0.i.i.i
}